; Function Attrs: mustprogress nounwind uwtable
define internal noalias noundef ptr @_ZN4node12_GLOBAL__N_117CompressionStreamINS0_11ZlibContextEE12AllocForZlibEPvjj(ptr nocapture noundef %data, i32 noundef %items, i32 noundef %size) #3 align 2 {
entry:
  %conv = zext i32 %items to i64
  %conv1 = zext i32 %size to i64
  %mul5.i1 = mul nuw i64 %conv1, %conv
  %add.i = add nuw i64 %mul5.i1, 8
  %malloc.i.i.i = tail call ptr @malloc(i64 %add.i)
  %cmp2.i.i.i.i = icmp eq ptr %malloc.i.i.i, null
  br i1 %cmp2.i.i.i.i, label %_ZN4node15UncheckedMallocEm.exit.i, label %if.end.i

_ZN4node15UncheckedMallocEm.exit.i:               ; preds = %entry
  tail call void @_ZN4node21LowMemoryNotificationEv() #22
  %malloc1.i.i.i = tail call ptr @malloc(i64 %add.i)
  %cmp.i = icmp eq ptr %malloc1.i.i.i, null
  br i1 %cmp.i, label %_ZN4node12_GLOBAL__N_117CompressionStreamINS0_11ZlibContextEE14AllocForBrotliEPvm.exit, label %if.end.i

if.end.i:                                         ; preds = %_ZN4node15UncheckedMallocEm.exit.i, %entry
  %retval.0.i.i.i15.i = phi ptr [ %malloc1.i.i.i, %_ZN4node15UncheckedMallocEm.exit.i ], [ %malloc.i.i.i, %entry ]
  store i64 %add.i, ptr %retval.0.i.i.i15.i, align 8
  %unreported_allocations_.i = getelementptr inbounds i8, ptr %data, i64 224
  %0 = atomicrmw add ptr %unreported_allocations_.i, i64 %add.i monotonic, align 8
  %add.ptr.i = getelementptr inbounds i8, ptr %retval.0.i.i.i15.i, i64 8
  br label %_ZN4node12_GLOBAL__N_117CompressionStreamINS0_11ZlibContextEE14AllocForBrotliEPvm.exit

_ZN4node12_GLOBAL__N_117CompressionStreamINS0_11ZlibContextEE14AllocForBrotliEPvm.exit: ; preds = %_ZN4node15UncheckedMallocEm.exit.i, %if.end.i
  %retval.0.i = phi ptr [ %add.ptr.i, %if.end.i ], [ null, %_ZN4node15UncheckedMallocEm.exit.i ]
  ret ptr %retval.0.i
}